; Function Attrs: nounwind uwtable
define internal fastcc void @_add_it(i32 noundef range(i32 0, 2147483647) %0, ptr noundef %1) unnamed_addr #7 {
  %3 = load i8, ptr @have_db_conn, align 1, !range !14, !noundef !15
  %4 = trunc nuw i8 %3 to i1
  br i1 %4, label %6, label %5

5:                                                ; preds = %2
  store i32 1, ptr @exit_code, align 4
  br label %87

6:                                                ; preds = %2
  %7 = load i32, ptr @readonly_flag, align 4
  %.not = icmp eq i32 %7, 0
  br i1 %.not, label %11, label %8

8:                                                ; preds = %6
  store i32 1, ptr @exit_code, align 4
  %9 = load ptr, ptr @stderr, align 8
  %10 = tail call i64 @fwrite(ptr nonnull @.str.59, i64 41, i64 1, ptr %9) #16
  br label %87

11:                                               ; preds = %6
  %12 = load ptr, ptr %1, align 8
  %.not41 = icmp eq ptr %12, null
  br i1 %.not41, label %.thread, label %13

13:                                               ; preds = %11
  %14 = tail call i64 @strlen(ptr noundef nonnull dereferenceable(1) %12) #21
  %15 = trunc i64 %14 to i32
  %16 = load ptr, ptr @db_conn, align 8
  %17 = tail call i32 @slurmdb_connection_commit(ptr noundef %16, i1 noundef zeroext false) #15
  %18 = load ptr, ptr %1, align 8
  %19 = tail call i32 @llvm.smax.i32(i32 %15, i32 1)
  %20 = zext nneg i32 %19 to i64
  %21 = tail call i32 @xstrncasecmp(ptr noundef %18, ptr noundef nonnull @.str.60, i64 noundef %20) #15
  %.not42 = icmp eq i32 %21, 0
  br i1 %.not42, label %27, label %22

22:                                               ; preds = %13
  %23 = load ptr, ptr %1, align 8
  %24 = tail call i32 @llvm.smax.i32(i32 %15, i32 4)
  %25 = zext nneg i32 %24 to i64
  %26 = tail call i32 @xstrncasecmp(ptr noundef %23, ptr noundef nonnull @.str.61, i64 noundef %25) #15
  %.not43 = icmp eq i32 %26, 0
  br i1 %.not43, label %27, label %31

27:                                               ; preds = %22, %13
  %28 = add nsw i32 %0, -1
  %29 = getelementptr inbounds nuw i8, ptr %1, i64 8
  %30 = tail call i32 @sacctmgr_add_account(i32 noundef %28, ptr noundef nonnull %29) #15
  br label %85

31:                                               ; preds = %22
  %32 = load ptr, ptr %1, align 8
  %33 = tail call i32 @llvm.smax.i32(i32 %15, i32 2)
  %34 = zext nneg i32 %33 to i64
  %35 = tail call i32 @xstrncasecmp(ptr noundef %32, ptr noundef nonnull @.str.62, i64 noundef %34) #15
  %.not44 = icmp eq i32 %35, 0
  br i1 %.not44, label %36, label %40

36:                                               ; preds = %31
  %37 = add nsw i32 %0, -1
  %38 = getelementptr inbounds nuw i8, ptr %1, i64 8
  %39 = tail call i32 @sacctmgr_add_cluster(i32 noundef %37, ptr noundef nonnull %38) #15
  br label %85

40:                                               ; preds = %31
  %41 = load ptr, ptr %1, align 8
  %42 = tail call i32 @xstrncasecmp(ptr noundef %41, ptr noundef nonnull @.str.63, i64 noundef %34) #15
  %.not45 = icmp eq i32 %42, 0
  br i1 %.not45, label %43, label %47

43:                                               ; preds = %40
  %44 = add nsw i32 %0, -1
  %45 = getelementptr inbounds nuw i8, ptr %1, i64 8
  %46 = tail call i32 @sacctmgr_add_coord(i32 noundef %44, ptr noundef nonnull %45) #15
  br label %85

47:                                               ; preds = %40
  %48 = load ptr, ptr %1, align 8
  %49 = tail call i32 @xstrncasecmp(ptr noundef %48, ptr noundef nonnull @.str.64, i64 noundef %20) #15
  %.not46 = icmp eq i32 %49, 0
  br i1 %.not46, label %50, label %54

50:                                               ; preds = %47
  %51 = add nsw i32 %0, -1
  %52 = getelementptr inbounds nuw i8, ptr %1, i64 8
  %53 = tail call i32 @sacctmgr_add_federation(i32 noundef %51, ptr noundef nonnull %52) #15
  br label %85

54:                                               ; preds = %47
  %55 = load ptr, ptr %1, align 8
  %56 = tail call i32 @xstrncasecmp(ptr noundef %55, ptr noundef nonnull @.str.65, i64 noundef %20) #15
  %.not47 = icmp eq i32 %56, 0
  br i1 %.not47, label %57, label %61

57:                                               ; preds = %54
  %58 = add nsw i32 %0, -1
  %59 = getelementptr inbounds nuw i8, ptr %1, i64 8
  %60 = tail call i32 @sacctmgr_add_qos(i32 noundef %58, ptr noundef nonnull %59) #15
  br label %85

61:                                               ; preds = %54
  %62 = load ptr, ptr %1, align 8
  %63 = tail call i32 @xstrncasecmp(ptr noundef %62, ptr noundef nonnull @.str.66, i64 noundef %20) #15
  %.not48 = icmp eq i32 %63, 0
  br i1 %.not48, label %64, label %68

64:                                               ; preds = %61
  %65 = add nsw i32 %0, -1
  %66 = getelementptr inbounds nuw i8, ptr %1, i64 8
  %67 = tail call i32 @sacctmgr_add_res(i32 noundef %65, ptr noundef nonnull %66) #15
  br label %85

68:                                               ; preds = %61
  %69 = load ptr, ptr %1, align 8
  %70 = tail call i32 @xstrncasecmp(ptr noundef %69, ptr noundef nonnull @.str.67, i64 noundef %20) #15
  %.not49 = icmp eq i32 %70, 0
  br i1 %.not49, label %71, label %.thread

71:                                               ; preds = %68
  %72 = add nsw i32 %0, -1
  %73 = getelementptr inbounds nuw i8, ptr %1, i64 8
  %74 = tail call i32 @sacctmgr_add_user(i32 noundef %72, ptr noundef nonnull %73) #15
  br label %85

.thread:                                          ; preds = %11, %68
  store i32 1, ptr @exit_code, align 4
  %75 = load ptr, ptr @stderr, align 8
  %76 = tail call i64 @fwrite(ptr nonnull @.str.68, i64 31, i64 1, ptr %75) #16
  %77 = load ptr, ptr @stderr, align 8
  %78 = tail call i64 @fwrite(ptr nonnull @.str.69, i64 24, i64 1, ptr %77) #16
  %79 = load ptr, ptr @stderr, align 8
  %80 = tail call i64 @fwrite(ptr nonnull @.str.70, i64 37, i64 1, ptr %79) #16
  %81 = load ptr, ptr @stderr, align 8
  %82 = tail call i64 @fwrite(ptr nonnull @.str.71, i64 33, i64 1, ptr %81) #16
  %83 = load ptr, ptr @stderr, align 8
  %84 = tail call i64 @fwrite(ptr nonnull @.str.72, i64 10, i64 1, ptr %83) #16
  br label %87

85:                                               ; preds = %36, %50, %64, %71, %57, %43, %27
  %.0 = phi i32 [ %74, %71 ], [ %67, %64 ], [ %60, %57 ], [ %53, %50 ], [ %46, %43 ], [ %39, %36 ], [ %30, %27 ]
  %.not50 = icmp eq i32 %.0, 0
  br i1 %.not50, label %87, label %86

86:                                               ; preds = %85
  store i32 1, ptr @exit_code, align 4
  br label %87

87:                                               ; preds = %.thread, %85, %86, %8, %5
  ret void
}